target datalayout = "e-m:e-p270:32:32-p271:32:32-p272:64:64-i64:64-i128:128-f80:128-n8:16:32:64-S128"
target triple = "x86_64-unknown-linux-gnu"

%"struct.testing::internal::SharedPayloadBase" = type { %"struct.std::atomic" }
%"struct.std::atomic" = type { %"struct.std::__atomic_base" }
%"struct.std::__atomic_base" = type { i32 }
%"class.std::unique_ptr.382" = type { %"struct.std::__uniq_ptr_data.383" }
%"struct.std::__uniq_ptr_data.383" = type { %"class.std::__uniq_ptr_impl.384" }
%"class.std::__uniq_ptr_impl.384" = type { %"class.std::tuple.385" }
%"class.std::tuple.385" = type { %"struct.std::_Tuple_impl.386" }
%"struct.std::_Tuple_impl.386" = type { %"struct.std::_Head_base.389" }
%"struct.std::_Head_base.389" = type { ptr }
%"struct.testing::internal::SharedPayload.381" = type { %"struct.testing::internal::SharedPayloadBase", %"class.std::unique_ptr.382" }

; Function Attrs: mustprogress nounwind uwtable
define internal noundef nonnull align 1 dereferenceable(1) ptr @_ZNSt10_Head_baseILm1ESt14default_deleteIKN7testing16MatcherInterfaceIRKN4absl4SpanIKNS3_18container_internal12_GLOBAL__N_16Int128EEEEEELb1EE7_M_headERSF_(ptr noundef nonnull align 1 dereferenceable(1) %__b) #7 align 2 {
entry:
  %__b.addr = alloca ptr, align 8
  store ptr %__b, ptr %__b.addr, align 8
  %0 = load ptr, ptr %__b.addr, align 8
  ret ptr %0
}

; Function Attrs: mustprogress nounwind uwtable
define internal noundef nonnull align 1 dereferenceable(1) ptr @_ZNSt11_Tuple_implILm1EJSt14default_deleteIKN7testing16MatcherInterfaceIRKN4absl4SpanIKNS3_18container_internal12_GLOBAL__N_16Int128EEEEEEEE7_M_headERSF_(ptr noundef nonnull align 1 dereferenceable(1) %__t) #7 align 2 {
entry:
  %__t.addr = alloca ptr, align 8
  store ptr %__t, ptr %__t.addr, align 8
  %0 = load ptr, ptr %__t.addr, align 8
  %call = call noundef nonnull align 1 dereferenceable(1) ptr @_ZNSt10_Head_baseILm1ESt14default_deleteIKN7testing16MatcherInterfaceIRKN4absl4SpanIKNS3_18container_internal12_GLOBAL__N_16Int128EEEEEELb1EE7_M_headERSF_(ptr noundef nonnull align 1 dereferenceable(1) %0) #3
  ret ptr %call
}

; Function Attrs: mustprogress nounwind uwtable
define internal noundef nonnull align 8 dereferenceable(8) ptr @_ZNSt10_Head_baseILm0EPKN7testing16MatcherInterfaceIRKN4absl4SpanIKNS2_18container_internal12_GLOBAL__N_16Int128EEEEELb0EE7_M_headERSE_(ptr noundef nonnull align 8 dereferenceable(8) %__b) #7 align 2 {
entry:
  %__b.addr = alloca ptr, align 8
  store ptr %__b, ptr %__b.addr, align 8
  %0 = load ptr, ptr %__b.addr, align 8
  %_M_head_impl = getelementptr inbounds %"struct.std::_Head_base.389", ptr %0, i32 0, i32 0
  ret ptr %_M_head_impl
}

; Function Attrs: mustprogress nounwind uwtable
define internal noundef nonnull align 1 dereferenceable(1) ptr @_ZSt12__get_helperILm1ESt14default_deleteIKN7testing16MatcherInterfaceIRKN4absl4SpanIKNS3_18container_internal12_GLOBAL__N_16Int128EEEEEEJEERT0_RSt11_Tuple_implIXT_EJSF_DpT1_EE(ptr noundef nonnull align 1 dereferenceable(1) %__t) #7 {
entry:
  %__t.addr = alloca ptr, align 8
  store ptr %__t, ptr %__t.addr, align 8
  %0 = load ptr, ptr %__t.addr, align 8
  %call = call noundef nonnull align 1 dereferenceable(1) ptr @_ZNSt11_Tuple_implILm1EJSt14default_deleteIKN7testing16MatcherInterfaceIRKN4absl4SpanIKNS3_18container_internal12_GLOBAL__N_16Int128EEEEEEEE7_M_headERSF_(ptr noundef nonnull align 1 dereferenceable(1) %0) #3
  ret ptr %call
}

; Function Attrs: mustprogress nounwind uwtable
define internal noundef nonnull align 8 dereferenceable(8) ptr @_ZNSt11_Tuple_implILm0EJPKN7testing16MatcherInterfaceIRKN4absl4SpanIKNS2_18container_internal12_GLOBAL__N_16Int128EEEEESt14default_deleteISC_EEE7_M_headERSG_(ptr noundef nonnull align 8 dereferenceable(8) %__t) #7 align 2 {
entry:
  %__t.addr = alloca ptr, align 8
  store ptr %__t, ptr %__t.addr, align 8
  %0 = load ptr, ptr %__t.addr, align 8
  %call = call noundef nonnull align 8 dereferenceable(8) ptr @_ZNSt10_Head_baseILm0EPKN7testing16MatcherInterfaceIRKN4absl4SpanIKNS2_18container_internal12_GLOBAL__N_16Int128EEEEELb0EE7_M_headERSE_(ptr noundef nonnull align 8 dereferenceable(8) %0) #3
  ret ptr %call
}

; Function Attrs: mustprogress nounwind uwtable
define internal noundef nonnull align 1 dereferenceable(1) ptr @_ZSt3getILm1EJPKN7testing16MatcherInterfaceIRKN4absl4SpanIKNS2_18container_internal12_GLOBAL__N_16Int128EEEEESt14default_deleteISC_EEERNSt13tuple_elementIXT_ESt5tupleIJDpT0_EEE4typeERSK_(ptr noundef nonnull align 8 dereferenceable(8) %__t) #7 {
entry:
  %__t.addr = alloca ptr, align 8
  store ptr %__t, ptr %__t.addr, align 8
  %0 = load ptr, ptr %__t.addr, align 8
  %call = call noundef nonnull align 1 dereferenceable(1) ptr @_ZSt12__get_helperILm1ESt14default_deleteIKN7testing16MatcherInterfaceIRKN4absl4SpanIKNS3_18container_internal12_GLOBAL__N_16Int128EEEEEEJEERT0_RSt11_Tuple_implIXT_EJSF_DpT1_EE(ptr noundef nonnull align 1 dereferenceable(1) %0) #3
  ret ptr %call
}

; Function Attrs: mustprogress nounwind uwtable
define internal noundef nonnull align 8 dereferenceable(8) ptr @_ZSt12__get_helperILm0EPKN7testing16MatcherInterfaceIRKN4absl4SpanIKNS2_18container_internal12_GLOBAL__N_16Int128EEEEEJSt14default_deleteISC_EEERT0_RSt11_Tuple_implIXT_EJSG_DpT1_EE(ptr noundef nonnull align 8 dereferenceable(8) %__t) #7 {
entry:
  %__t.addr = alloca ptr, align 8
  store ptr %__t, ptr %__t.addr, align 8
  %0 = load ptr, ptr %__t.addr, align 8
  %call = call noundef nonnull align 8 dereferenceable(8) ptr @_ZNSt11_Tuple_implILm0EJPKN7testing16MatcherInterfaceIRKN4absl4SpanIKNS2_18container_internal12_GLOBAL__N_16Int128EEEEESt14default_deleteISC_EEE7_M_headERSG_(ptr noundef nonnull align 8 dereferenceable(8) %0) #3
  ret ptr %call
}

; Function Attrs: mustprogress nounwind uwtable
define internal noundef nonnull align 1 dereferenceable(1) ptr @_ZNSt15__uniq_ptr_implIKN7testing16MatcherInterfaceIRKN4absl4SpanIKNS2_18container_internal12_GLOBAL__N_16Int128EEEEESt14default_deleteISC_EE10_M_deleterEv(ptr noundef nonnull align 8 dereferenceable(8) %this) #7 align 2 {
entry:
  %this.addr = alloca ptr, align 8
  store ptr %this, ptr %this.addr, align 8
  %this1 = load ptr, ptr %this.addr, align 8
  %_M_t = getelementptr inbounds %"class.std::__uniq_ptr_impl.384", ptr %this1, i32 0, i32 0
  %call = call noundef nonnull align 1 dereferenceable(1) ptr @_ZSt3getILm1EJPKN7testing16MatcherInterfaceIRKN4absl4SpanIKNS2_18container_internal12_GLOBAL__N_16Int128EEEEESt14default_deleteISC_EEERNSt13tuple_elementIXT_ESt5tupleIJDpT0_EEE4typeERSK_(ptr noundef nonnull align 8 dereferenceable(8) %_M_t) #3
  ret ptr %call
}

; Function Attrs: mustprogress nounwind uwtable
define internal noundef nonnull align 8 dereferenceable(8) ptr @_ZSt3getILm0EJPKN7testing16MatcherInterfaceIRKN4absl4SpanIKNS2_18container_internal12_GLOBAL__N_16Int128EEEEESt14default_deleteISC_EEERNSt13tuple_elementIXT_ESt5tupleIJDpT0_EEE4typeERSK_(ptr noundef nonnull align 8 dereferenceable(8) %__t) #7 {
entry:
  %__t.addr = alloca ptr, align 8
  store ptr %__t, ptr %__t.addr, align 8
  %0 = load ptr, ptr %__t.addr, align 8
  %call = call noundef nonnull align 8 dereferenceable(8) ptr @_ZSt12__get_helperILm0EPKN7testing16MatcherInterfaceIRKN4absl4SpanIKNS2_18container_internal12_GLOBAL__N_16Int128EEEEEJSt14default_deleteISC_EEERT0_RSt11_Tuple_implIXT_EJSG_DpT1_EE(ptr noundef nonnull align 8 dereferenceable(8) %0) #3
  ret ptr %call
}

; Function Attrs: noreturn nounwind uwtable
define linkonce_odr hidden void @__clang_call_terminate(ptr noundef %0) #9 comdat {
  %2 = call ptr @__cxa_begin_catch(ptr %0) #3
  call void @_ZSt9terminatev() #18
  unreachable
}

; Function Attrs: mustprogress nounwind uwtable
define internal void @_ZNKSt14default_deleteIKN7testing16MatcherInterfaceIRKN4absl4SpanIKNS2_18container_internal12_GLOBAL__N_16Int128EEEEEEclEPSC_(ptr noundef nonnull align 1 dereferenceable(1) %this, ptr noundef %__ptr) #7 align 2 {
entry:
  %this.addr = alloca ptr, align 8
  %__ptr.addr = alloca ptr, align 8
  store ptr %this, ptr %this.addr, align 8
  store ptr %__ptr, ptr %__ptr.addr, align 8
  %0 = load ptr, ptr %__ptr.addr, align 8
  %isnull = icmp eq ptr %0, null
  br i1 %isnull, label %delete.end, label %delete.notnull

delete.notnull:                                   ; preds = %entry
  %vtable = load ptr, ptr %0, align 8
  %vfn = getelementptr inbounds ptr, ptr %vtable, i64 1
  %1 = load ptr, ptr %vfn, align 8
  call void %1(ptr noundef nonnull align 8 dereferenceable(8) %0) #3
  br label %delete.end

delete.end:                                       ; preds = %delete.notnull, %entry
  ret void
}

; Function Attrs: mustprogress nounwind uwtable
define internal noundef nonnull align 1 dereferenceable(1) ptr @_ZNSt10unique_ptrIKN7testing16MatcherInterfaceIRKN4absl4SpanIKNS2_18container_internal12_GLOBAL__N_16Int128EEEEESt14default_deleteISC_EE11get_deleterEv(ptr noundef nonnull align 8 dereferenceable(8) %this) #7 align 2 {
entry:
  %this.addr = alloca ptr, align 8
  store ptr %this, ptr %this.addr, align 8
  %this1 = load ptr, ptr %this.addr, align 8
  %_M_t = getelementptr inbounds %"class.std::unique_ptr.382", ptr %this1, i32 0, i32 0
  %call = call noundef nonnull align 1 dereferenceable(1) ptr @_ZNSt15__uniq_ptr_implIKN7testing16MatcherInterfaceIRKN4absl4SpanIKNS2_18container_internal12_GLOBAL__N_16Int128EEEEESt14default_deleteISC_EE10_M_deleterEv(ptr noundef nonnull align 8 dereferenceable(8) %_M_t) #3
  ret ptr %call
}

; Function Attrs: mustprogress nounwind uwtable
define internal noundef nonnull align 8 dereferenceable(8) ptr @_ZNSt15__uniq_ptr_implIKN7testing16MatcherInterfaceIRKN4absl4SpanIKNS2_18container_internal12_GLOBAL__N_16Int128EEEEESt14default_deleteISC_EE6_M_ptrEv(ptr noundef nonnull align 8 dereferenceable(8) %this) #7 align 2 {
entry:
  %this.addr = alloca ptr, align 8
  store ptr %this, ptr %this.addr, align 8
  %this1 = load ptr, ptr %this.addr, align 8
  %_M_t = getelementptr inbounds %"class.std::__uniq_ptr_impl.384", ptr %this1, i32 0, i32 0
  %call = call noundef nonnull align 8 dereferenceable(8) ptr @_ZSt3getILm0EJPKN7testing16MatcherInterfaceIRKN4absl4SpanIKNS2_18container_internal12_GLOBAL__N_16Int128EEEEESt14default_deleteISC_EEERNSt13tuple_elementIXT_ESt5tupleIJDpT0_EEE4typeERSK_(ptr noundef nonnull align 8 dereferenceable(8) %_M_t) #3
  ret ptr %call
}

; Function Attrs: mustprogress nounwind uwtable
define internal void @_ZNSt10unique_ptrIKN7testing16MatcherInterfaceIRKN4absl4SpanIKNS2_18container_internal12_GLOBAL__N_16Int128EEEEESt14default_deleteISC_EED2Ev(ptr noundef nonnull align 8 dereferenceable(8) %this) unnamed_addr #7 align 2 personality ptr @__gxx_personality_v0 {
entry:
  %this.addr = alloca ptr, align 8
  %__ptr = alloca ptr, align 8
  store ptr %this, ptr %this.addr, align 8
  %this1 = load ptr, ptr %this.addr, align 8
  %_M_t = getelementptr inbounds %"class.std::unique_ptr.382", ptr %this1, i32 0, i32 0
  %call = call noundef nonnull align 8 dereferenceable(8) ptr @_ZNSt15__uniq_ptr_implIKN7testing16MatcherInterfaceIRKN4absl4SpanIKNS2_18container_internal12_GLOBAL__N_16Int128EEEEESt14default_deleteISC_EE6_M_ptrEv(ptr noundef nonnull align 8 dereferenceable(8) %_M_t) #3
  store ptr %call, ptr %__ptr, align 8
  %0 = load ptr, ptr %__ptr, align 8
  %1 = load ptr, ptr %0, align 8
  %cmp = icmp ne ptr %1, null
  br i1 %cmp, label %if.then, label %if.end

if.then:                                          ; preds = %entry
  %call2 = call noundef nonnull align 1 dereferenceable(1) ptr @_ZNSt10unique_ptrIKN7testing16MatcherInterfaceIRKN4absl4SpanIKNS2_18container_internal12_GLOBAL__N_16Int128EEEEESt14default_deleteISC_EE11get_deleterEv(ptr noundef nonnull align 8 dereferenceable(8) %this1) #3
  %2 = load ptr, ptr %__ptr, align 8
  %3 = load ptr, ptr %2, align 8
  invoke void @_ZNKSt14default_deleteIKN7testing16MatcherInterfaceIRKN4absl4SpanIKNS2_18container_internal12_GLOBAL__N_16Int128EEEEEEclEPSC_(ptr noundef nonnull align 1 dereferenceable(1) %call2, ptr noundef %3)
          to label %invoke.cont unwind label %terminate.lpad

invoke.cont:                                      ; preds = %if.then
  br label %if.end

if.end:                                           ; preds = %invoke.cont, %entry
  %4 = load ptr, ptr %__ptr, align 8
  store ptr null, ptr %4, align 8
  ret void

terminate.lpad:                                   ; preds = %if.then
  %5 = landingpad { ptr, i32 }
          catch ptr null
  %6 = extractvalue { ptr, i32 } %5, 0
  call void @__clang_call_terminate(ptr %6) #18
  unreachable
}

; Function Attrs: mustprogress nounwind uwtable
define internal void @_ZN7testing8internal13SharedPayloadISt10unique_ptrIKNS_16MatcherInterfaceIRKN4absl4SpanIKNS4_18container_internal12_GLOBAL__N_16Int128EEEEESt14default_deleteISE_EEED2Ev(ptr noundef nonnull align 8 dereferenceable(16) %this) unnamed_addr #7 align 2 {
entry:
  %this.addr = alloca ptr, align 8
  store ptr %this, ptr %this.addr, align 8
  %this1 = load ptr, ptr %this.addr, align 8
  %value = getelementptr inbounds %"struct.testing::internal::SharedPayload.381", ptr %this1, i32 0, i32 1
  call void @_ZNSt10unique_ptrIKN7testing16MatcherInterfaceIRKN4absl4SpanIKNS2_18container_internal12_GLOBAL__N_16Int128EEEEESt14default_deleteISC_EED2Ev(ptr noundef nonnull align 8 dereferenceable(8) %value) #3
  ret void
}

; Function Attrs: mustprogress nounwind uwtable
define internal void @_ZN7testing8internal13SharedPayloadISt10unique_ptrIKNS_16MatcherInterfaceIRKN4absl4SpanIKNS4_18container_internal12_GLOBAL__N_16Int128EEEEESt14default_deleteISE_EEE7DestroyEPNS0_17SharedPayloadBaseE(ptr noundef %shared) #7 align 2 {
entry:
  %shared.addr = alloca ptr, align 8
  store ptr %shared, ptr %shared.addr, align 8
  %0 = load ptr, ptr %shared.addr, align 8
  %isnull = icmp eq ptr %0, null
  br i1 %isnull, label %delete.end, label %delete.notnull

delete.notnull:                                   ; preds = %entry
  call void @_ZN7testing8internal13SharedPayloadISt10unique_ptrIKNS_16MatcherInterfaceIRKN4absl4SpanIKNS4_18container_internal12_GLOBAL__N_16Int128EEEEESt14default_deleteISE_EEED2Ev(ptr noundef nonnull align 8 dereferenceable(16) %0) #3
  call void @_ZdlPv(ptr noundef %0) #16
  br label %delete.end

delete.end:                                       ; preds = %delete.notnull, %entry
  ret void
}